target datalayout = "e-m:e-p270:32:32-p271:32:32-p272:64:64-i64:64-i128:128-f80:128-n8:16:32:64-S128"
target triple = "x86_64-pc-linux-gnu"

; Function Attrs: nounwind uwtable
define void @Abc_TtNormalizeSmallTruth(ptr noundef %0, i32 noundef %1) #0 {
  %3 = alloca ptr, align 8
  %4 = alloca i32, align 4
  %5 = alloca i32, align 4
  %6 = alloca i32, align 4
  %7 = alloca i64, align 8
  store ptr %0, ptr %3, align 8, !tbaa !3
  store i32 %1, ptr %4, align 4, !tbaa !8
  %8 = load i32, ptr %4, align 4, !tbaa !8
  %9 = icmp slt i32 %8, 6
  br i1 %9, label %10, label %38

10:                                               ; preds = %2
  call void @llvm.lifetime.start.p0(i64 4, ptr %5) #12
  call void @llvm.lifetime.start.p0(i64 4, ptr %6) #12
  %11 = load i32, ptr %4, align 4, !tbaa !8
  %12 = shl i32 1, %11
  store i32 %12, ptr %6, align 4, !tbaa !8
  call void @llvm.lifetime.start.p0(i64 8, ptr %7) #12
  %13 = load ptr, ptr %3, align 8, !tbaa !3
  %14 = load i64, ptr %13, align 8, !tbaa !10
  %15 = load i32, ptr %6, align 4, !tbaa !8
  %16 = zext i32 %15 to i64
  %17 = shl i64 1, %16
  %18 = sub i64 %17, 1
  %19 = and i64 %14, %18
  %20 = load ptr, ptr %3, align 8, !tbaa !3
  store i64 %19, ptr %20, align 8, !tbaa !10
  store i64 %19, ptr %7, align 8, !tbaa !10
  %21 = load i32, ptr %6, align 4, !tbaa !8
  store i32 %21, ptr %5, align 4, !tbaa !8
  br label %22

22:                                               ; preds = %33, %10
  %23 = load i32, ptr %5, align 4, !tbaa !8
  %24 = icmp slt i32 %23, 64
  br i1 %24, label %25, label %37

25:                                               ; preds = %22
  %26 = load i64, ptr %7, align 8, !tbaa !10
  %27 = load i32, ptr %5, align 4, !tbaa !8
  %28 = zext i32 %27 to i64
  %29 = shl i64 %26, %28
  %30 = load ptr, ptr %3, align 8, !tbaa !3
  %31 = load i64, ptr %30, align 8, !tbaa !10
  %32 = or i64 %31, %29
  store i64 %32, ptr %30, align 8, !tbaa !10
  br label %33

33:                                               ; preds = %25
  %34 = load i32, ptr %6, align 4, !tbaa !8
  %35 = load i32, ptr %5, align 4, !tbaa !8
  %36 = add nsw i32 %35, %34
  store i32 %36, ptr %5, align 4, !tbaa !8
  br label %22, !llvm.loop !12

37:                                               ; preds = %22
  call void @llvm.lifetime.end.p0(i64 8, ptr %7) #12
  call void @llvm.lifetime.end.p0(i64 4, ptr %6) #12
  call void @llvm.lifetime.end.p0(i64 4, ptr %5) #12
  br label %38

38:                                               ; preds = %37, %2
  ret void
}