; Function Attrs: nofree norecurse nosync nounwind memory(argmem: readwrite) uwtable
define void @Abc_TtNormalizeSmallTruth(ptr noundef captures(none) %0, i32 noundef %1) local_unnamed_addr #0 {
  %3 = icmp slt i32 %1, 6
  br i1 %3, label %4, label %.loopexit

4:                                                ; preds = %2
  %5 = shl nuw nsw i32 1, %1
  %6 = load i64, ptr %0, align 8, !tbaa !3
  %7 = zext nneg i32 %5 to i64
  %notmask = shl nsw i64 -1, %7
  %8 = xor i64 %notmask, -1
  %9 = and i64 %6, %8
  store i64 %9, ptr %0, align 8, !tbaa !3
  %10 = icmp ult i32 %1, 6
  br i1 %10, label %.lr.ph, label %.loopexit

.lr.ph:                                           ; preds = %4, %.lr.ph
  %indvars.iv = phi i64 [ %indvars.iv.next, %.lr.ph ], [ %7, %4 ]
  %11 = phi i64 [ %13, %.lr.ph ], [ %9, %4 ]
  %12 = shl i64 %9, %indvars.iv
  %13 = or i64 %11, %12
  %indvars.iv.next = add nuw nsw i64 %indvars.iv, %7
  %14 = icmp samesign ult i64 %indvars.iv.next, 64
  br i1 %14, label %.lr.ph, label %..loopexit_crit_edge, !llvm.loop !7

..loopexit_crit_edge:                             ; preds = %.lr.ph
  store i64 %13, ptr %0, align 8, !tbaa !3
  br label %.loopexit

.loopexit:                                        ; preds = %4, %..loopexit_crit_edge, %2
  ret void
}